target datalayout = "e-m:e-p270:32:32-p271:32:32-p272:64:64-i64:64-i128:128-f80:128-n8:16:32:64-S128"
target triple = "x86_64-pc-linux-gnu"

%struct.expert_field = type { i32, i32 }

@hf_nfapi_drms_config_flag = internal global i32 0, align 4
@hf_nfapi_drms_scrambling = internal global i32 0, align 4
@hf_nfapi_csi_config_flag = internal global i32 0, align 4
@hf_nfapi_csi_scrambling = internal global i32 0, align 4
@hf_nfapi_pdsch_re_mapping_flag = internal global i32 0, align 4
@hf_nfapi_pdsch_re_mapping_antenna_ports = internal global i32 0, align 4
@hf_nfapi_pdsch_re_mapping_freq_shift = internal global i32 0, align 4
@ei_invalid_range = internal global %struct.expert_field zeroinitializer, align 4
@.str.2201 = private unnamed_addr constant [38 x i8] c"Invalid drms config flag value [0..1]\00", align 1
@.str.2202 = private unnamed_addr constant [39 x i8] c"Invalid drms scrambling value [0..503]\00", align 1
@.str.2203 = private unnamed_addr constant [37 x i8] c"Invalid csi config flag value [0..1]\00", align 1
@.str.2204 = private unnamed_addr constant [38 x i8] c"Invalid csi scrambling value [0..503]\00", align 1
@.str.2205 = private unnamed_addr constant [43 x i8] c"Invalid pdsch re mapping flag value [0..1]\00", align 1
@.str.2206 = private unnamed_addr constant [55 x i8] c"Invalid pdsch re mapping antenna ports value [1, 2, 4]\00", align 1
@.str.2207 = private unnamed_addr constant [49 x i8] c"Invalid pdsch re mapping freq shift value [0..5]\00", align 1

; Function Attrs: nounwind uwtable
define internal void @dissect_dl_config_request_dlsch_pdu_rel11_value(ptr noundef %0, ptr noundef %1) #0 {
  %3 = alloca ptr, align 8
  %4 = alloca ptr, align 8
  %5 = alloca ptr, align 8
  %6 = alloca i32, align 4
  store ptr %0, ptr %3, align 8
  store ptr %1, ptr %4, align 8
  %7 = load ptr, ptr %3, align 8
  %8 = load i32, ptr @hf_nfapi_drms_config_flag, align 4
  %9 = call ptr @ptvcursor_add_ret_uint(ptr noundef %7, i32 noundef %8, i32 noundef 1, i32 noundef 0, ptr noundef %6)
  store ptr %9, ptr %5, align 8
  %10 = load i32, ptr %6, align 4
  %11 = icmp ugt i32 %10, 1
  br i1 %11, label %12, label %16

12:                                               ; preds = %2
  %13 = load ptr, ptr %4, align 8
  %14 = load ptr, ptr %5, align 8
  %15 = call ptr (ptr, ptr, ptr, ptr, ...) @expert_add_info_format(ptr noundef %13, ptr noundef %14, ptr noundef @ei_invalid_range, ptr noundef @.str.2201)
  br label %16

16:                                               ; preds = %12, %2
  %17 = load ptr, ptr %3, align 8
  %18 = load i32, ptr @hf_nfapi_drms_scrambling, align 4
  %19 = call ptr @ptvcursor_add_ret_uint(ptr noundef %17, i32 noundef %18, i32 noundef 2, i32 noundef 0, ptr noundef %6)
  store ptr %19, ptr %5, align 8
  %20 = load i32, ptr %6, align 4
  %21 = icmp ugt i32 %20, 503
  br i1 %21, label %22, label %26

22:                                               ; preds = %16
  %23 = load ptr, ptr %4, align 8
  %24 = load ptr, ptr %5, align 8
  %25 = call ptr (ptr, ptr, ptr, ptr, ...) @expert_add_info_format(ptr noundef %23, ptr noundef %24, ptr noundef @ei_invalid_range, ptr noundef @.str.2202)
  br label %26

26:                                               ; preds = %22, %16
  %27 = load ptr, ptr %3, align 8
  %28 = load i32, ptr @hf_nfapi_csi_config_flag, align 4
  %29 = call ptr @ptvcursor_add_ret_uint(ptr noundef %27, i32 noundef %28, i32 noundef 1, i32 noundef 0, ptr noundef %6)
  store ptr %29, ptr %5, align 8
  %30 = load i32, ptr %6, align 4
  %31 = icmp ugt i32 %30, 1
  br i1 %31, label %32, label %36

32:                                               ; preds = %26
  %33 = load ptr, ptr %4, align 8
  %34 = load ptr, ptr %5, align 8
  %35 = call ptr (ptr, ptr, ptr, ptr, ...) @expert_add_info_format(ptr noundef %33, ptr noundef %34, ptr noundef @ei_invalid_range, ptr noundef @.str.2203)
  br label %36

36:                                               ; preds = %32, %26
  %37 = load ptr, ptr %3, align 8
  %38 = load i32, ptr @hf_nfapi_csi_scrambling, align 4
  %39 = call ptr @ptvcursor_add_ret_uint(ptr noundef %37, i32 noundef %38, i32 noundef 2, i32 noundef 0, ptr noundef %6)
  store ptr %39, ptr %5, align 8
  %40 = load i32, ptr %6, align 4
  %41 = icmp ugt i32 %40, 503
  br i1 %41, label %42, label %46

42:                                               ; preds = %36
  %43 = load ptr, ptr %4, align 8
  %44 = load ptr, ptr %5, align 8
  %45 = call ptr (ptr, ptr, ptr, ptr, ...) @expert_add_info_format(ptr noundef %43, ptr noundef %44, ptr noundef @ei_invalid_range, ptr noundef @.str.2204)
  br label %46

46:                                               ; preds = %42, %36
  %47 = load ptr, ptr %3, align 8
  %48 = load i32, ptr @hf_nfapi_pdsch_re_mapping_flag, align 4
  %49 = call ptr @ptvcursor_add_ret_uint(ptr noundef %47, i32 noundef %48, i32 noundef 1, i32 noundef 0, ptr noundef %6)
  store ptr %49, ptr %5, align 8
  %50 = load i32, ptr %6, align 4
  %51 = icmp ugt i32 %50, 1
  br i1 %51, label %52, label %56

52:                                               ; preds = %46
  %53 = load ptr, ptr %4, align 8
  %54 = load ptr, ptr %5, align 8
  %55 = call ptr (ptr, ptr, ptr, ptr, ...) @expert_add_info_format(ptr noundef %53, ptr noundef %54, ptr noundef @ei_invalid_range, ptr noundef @.str.2205)
  br label %56

56:                                               ; preds = %52, %46
  %57 = load ptr, ptr %3, align 8
  %58 = load i32, ptr @hf_nfapi_pdsch_re_mapping_antenna_ports, align 4
  %59 = call ptr @ptvcursor_add_ret_uint(ptr noundef %57, i32 noundef %58, i32 noundef 1, i32 noundef 0, ptr noundef %6)
  store ptr %59, ptr %5, align 8
  %60 = load i32, ptr %6, align 4
  %61 = icmp eq i32 %60, 1
  br i1 %61, label %72, label %62

62:                                               ; preds = %56
  %63 = load i32, ptr %6, align 4
  %64 = icmp eq i32 %63, 2
  br i1 %64, label %72, label %65

65:                                               ; preds = %62
  %66 = load i32, ptr %6, align 4
  %67 = icmp eq i32 %66, 4
  br i1 %67, label %72, label %68

68:                                               ; preds = %65
  %69 = load ptr, ptr %4, align 8
  %70 = load ptr, ptr %5, align 8
  %71 = call ptr (ptr, ptr, ptr, ptr, ...) @expert_add_info_format(ptr noundef %69, ptr noundef %70, ptr noundef @ei_invalid_range, ptr noundef @.str.2206)
  br label %72

72:                                               ; preds = %68, %65, %62, %56
  %73 = load ptr, ptr %3, align 8
  %74 = load i32, ptr @hf_nfapi_pdsch_re_mapping_freq_shift, align 4
  %75 = call ptr @ptvcursor_add_ret_uint(ptr noundef %73, i32 noundef %74, i32 noundef 1, i32 noundef 0, ptr noundef %6)
  store ptr %75, ptr %5, align 8
  %76 = load i32, ptr %6, align 4
  %77 = icmp ugt i32 %76, 5
  br i1 %77, label %78, label %82

78:                                               ; preds = %72
  %79 = load ptr, ptr %4, align 8
  %80 = load ptr, ptr %5, align 8
  %81 = call ptr (ptr, ptr, ptr, ptr, ...) @expert_add_info_format(ptr noundef %79, ptr noundef %80, ptr noundef @ei_invalid_range, ptr noundef @.str.2207)
  br label %82

82:                                               ; preds = %78, %72
  ret void
}