; Function Attrs: nounwind uwtable
define internal void @dissect_dl_config_request_dlsch_pdu_rel11_value(ptr noundef %0, ptr noundef %1) #0 {
  %3 = alloca i32, align 4
  %4 = load i32, ptr @hf_nfapi_drms_config_flag, align 4
  %5 = call ptr @ptvcursor_add_ret_uint(ptr noundef %0, i32 noundef %4, i32 noundef 1, i32 noundef 0, ptr noundef nonnull %3) #7
  %6 = load i32, ptr %3, align 4
  %7 = icmp ugt i32 %6, 1
  br i1 %7, label %8, label %10

8:                                                ; preds = %2
  %9 = call ptr (ptr, ptr, ptr, ptr, ...) @expert_add_info_format(ptr noundef %1, ptr noundef %5, ptr noundef nonnull @ei_invalid_range, ptr noundef nonnull @.str.2201) #7
  br label %10

10:                                               ; preds = %8, %2
  %11 = load i32, ptr @hf_nfapi_drms_scrambling, align 4
  %12 = call ptr @ptvcursor_add_ret_uint(ptr noundef %0, i32 noundef %11, i32 noundef 2, i32 noundef 0, ptr noundef nonnull %3) #7
  %13 = load i32, ptr %3, align 4
  %14 = icmp ugt i32 %13, 503
  br i1 %14, label %15, label %17

15:                                               ; preds = %10
  %16 = call ptr (ptr, ptr, ptr, ptr, ...) @expert_add_info_format(ptr noundef %1, ptr noundef %12, ptr noundef nonnull @ei_invalid_range, ptr noundef nonnull @.str.2202) #7
  br label %17

17:                                               ; preds = %15, %10
  %18 = load i32, ptr @hf_nfapi_csi_config_flag, align 4
  %19 = call ptr @ptvcursor_add_ret_uint(ptr noundef %0, i32 noundef %18, i32 noundef 1, i32 noundef 0, ptr noundef nonnull %3) #7
  %20 = load i32, ptr %3, align 4
  %21 = icmp ugt i32 %20, 1
  br i1 %21, label %22, label %24

22:                                               ; preds = %17
  %23 = call ptr (ptr, ptr, ptr, ptr, ...) @expert_add_info_format(ptr noundef %1, ptr noundef %19, ptr noundef nonnull @ei_invalid_range, ptr noundef nonnull @.str.2203) #7
  br label %24

24:                                               ; preds = %22, %17
  %25 = load i32, ptr @hf_nfapi_csi_scrambling, align 4
  %26 = call ptr @ptvcursor_add_ret_uint(ptr noundef %0, i32 noundef %25, i32 noundef 2, i32 noundef 0, ptr noundef nonnull %3) #7
  %27 = load i32, ptr %3, align 4
  %28 = icmp ugt i32 %27, 503
  br i1 %28, label %29, label %31

29:                                               ; preds = %24
  %30 = call ptr (ptr, ptr, ptr, ptr, ...) @expert_add_info_format(ptr noundef %1, ptr noundef %26, ptr noundef nonnull @ei_invalid_range, ptr noundef nonnull @.str.2204) #7
  br label %31

31:                                               ; preds = %29, %24
  %32 = load i32, ptr @hf_nfapi_pdsch_re_mapping_flag, align 4
  %33 = call ptr @ptvcursor_add_ret_uint(ptr noundef %0, i32 noundef %32, i32 noundef 1, i32 noundef 0, ptr noundef nonnull %3) #7
  %34 = load i32, ptr %3, align 4
  %35 = icmp ugt i32 %34, 1
  br i1 %35, label %36, label %38

36:                                               ; preds = %31
  %37 = call ptr (ptr, ptr, ptr, ptr, ...) @expert_add_info_format(ptr noundef %1, ptr noundef %33, ptr noundef nonnull @ei_invalid_range, ptr noundef nonnull @.str.2205) #7
  br label %38

38:                                               ; preds = %36, %31
  %39 = load i32, ptr @hf_nfapi_pdsch_re_mapping_antenna_ports, align 4
  %40 = call ptr @ptvcursor_add_ret_uint(ptr noundef %0, i32 noundef %39, i32 noundef 1, i32 noundef 0, ptr noundef nonnull %3) #7
  %41 = load i32, ptr %3, align 4
  switch i32 %41, label %42 [
    i32 4, label %44
    i32 2, label %44
    i32 1, label %44
  ]

42:                                               ; preds = %38
  %43 = call ptr (ptr, ptr, ptr, ptr, ...) @expert_add_info_format(ptr noundef %1, ptr noundef %40, ptr noundef nonnull @ei_invalid_range, ptr noundef nonnull @.str.2206) #7
  br label %44

44:                                               ; preds = %38, %38, %38, %42
  %45 = load i32, ptr @hf_nfapi_pdsch_re_mapping_freq_shift, align 4
  %46 = call ptr @ptvcursor_add_ret_uint(ptr noundef %0, i32 noundef %45, i32 noundef 1, i32 noundef 0, ptr noundef nonnull %3) #7
  %47 = load i32, ptr %3, align 4
  %48 = icmp ugt i32 %47, 5
  br i1 %48, label %49, label %51

49:                                               ; preds = %44
  %50 = call ptr (ptr, ptr, ptr, ptr, ...) @expert_add_info_format(ptr noundef %1, ptr noundef %46, ptr noundef nonnull @ei_invalid_range, ptr noundef nonnull @.str.2207) #7
  br label %51

51:                                               ; preds = %49, %44
  ret void
}